target datalayout = "e-m:e-p270:32:32-p271:32:32-p272:64:64-i64:64-i128:128-f80:128-n8:16:32:64-S128"
target triple = "x86_64-unknown-linux-gnu"

%struct.tsd_s = type { i8, i8, i64, i64, i64, i64, i64, i64, i64, i64, i64, i64, i64, i64, ptr, i64, i64, i64, ptr, ptr, %struct.ticker_geom_s, i8, %struct.tsd_binshards_s, %struct.tsd_link_t, i8, %struct.peak_s, %struct.activity_callback_thunk_s, %struct.tcache_slow_s, %struct.rtree_ctx_s, %struct.atomic_u8_t, i64, i64, i64, i64, %struct.tcache_s, %struct.witness_tsd_s }
%struct.ticker_geom_s = type { i32, i32 }
%struct.tsd_binshards_s = type { [39 x i8] }
%struct.tsd_link_t = type { ptr, ptr }
%struct.peak_s = type { i64, i64 }
%struct.activity_callback_thunk_s = type { ptr, ptr }
%struct.tcache_slow_s = type { %struct.anon.3, %struct.cache_bin_array_descriptor_s, ptr, i32, [39 x i8], [39 x i8], [39 x i8], ptr, ptr }
%struct.anon.3 = type { ptr, ptr }
%struct.cache_bin_array_descriptor_s = type { %struct.anon.4, ptr }
%struct.anon.4 = type { ptr, ptr }
%struct.rtree_ctx_s = type { [16 x %struct.rtree_ctx_cache_elm_s], [8 x %struct.rtree_ctx_cache_elm_s] }
%struct.rtree_ctx_cache_elm_s = type { i64, ptr }
%struct.atomic_u8_t = type { i8 }
%struct.tcache_s = type { ptr, [76 x %struct.cache_bin_s] }
%struct.cache_bin_s = type { ptr, %struct.cache_bin_stats_s, i16, i16, i16 }
%struct.cache_bin_stats_s = type { i64 }
%struct.witness_tsd_s = type { %struct.witness_list_t, i8 }
%struct.witness_list_t = type { ptr }

; Function Attrs: nounwind uwtable
define internal i32 @thread_tcache_flush_ctl(ptr noundef %tsd, ptr noundef %mib, i64 noundef %miblen, ptr noundef %oldp, ptr noundef %oldlenp, ptr noundef %newp, i64 noundef %newlen) #0 {
entry:
  %tsd.addr.i11 = alloca ptr, align 8
  %tsd.addr.i.i = alloca ptr, align 8
  %tsd.addr.i10 = alloca ptr, align 8
  %state.i = alloca i8, align 1
  %tsd.addr.i8 = alloca ptr, align 8
  %retval.i = alloca i1, align 1
  %tsd.addr.i = alloca ptr, align 8
  %tsd.addr = alloca ptr, align 8
  %mib.addr = alloca ptr, align 8
  %miblen.addr = alloca i64, align 8
  %oldp.addr = alloca ptr, align 8
  %oldlenp.addr = alloca ptr, align 8
  %newp.addr = alloca ptr, align 8
  %newlen.addr = alloca i64, align 8
  %ret = alloca i32, align 4
  store ptr %tsd, ptr %tsd.addr, align 8
  store ptr %mib, ptr %mib.addr, align 8
  store i64 %miblen, ptr %miblen.addr, align 8
  store ptr %oldp, ptr %oldp.addr, align 8
  store ptr %oldlenp, ptr %oldlenp.addr, align 8
  store ptr %newp, ptr %newp.addr, align 8
  store i64 %newlen, ptr %newlen.addr, align 8
  %0 = load ptr, ptr %tsd.addr, align 8
  store ptr %0, ptr %tsd.addr.i, align 8
  %1 = load ptr, ptr %tsd.addr.i, align 8
  store ptr %1, ptr %tsd.addr.i8, align 8
  %2 = load ptr, ptr %tsd.addr.i8, align 8
  store ptr %2, ptr %tsd.addr.i10, align 8
  %3 = load ptr, ptr %tsd.addr.i10, align 8
  store ptr %3, ptr %tsd.addr.i.i, align 8
  %4 = load ptr, ptr %tsd.addr.i.i, align 8
  %state.i.i = getelementptr inbounds %struct.tsd_s, ptr %4, i32 0, i32 29
  %5 = load i8, ptr %state.i.i, align 8
  store i8 %5, ptr %state.i, align 1
  %6 = load ptr, ptr %tsd.addr.i10, align 8
  store ptr %6, ptr %tsd.addr.i11, align 8
  %7 = load ptr, ptr %tsd.addr.i11, align 8
  %8 = load i8, ptr %7, align 1
  %tobool.i = trunc i8 %8 to i1
  br i1 %tobool.i, label %if.then.i, label %if.end.i

if.then.i:                                        ; preds = %entry
  store i1 true, ptr %retval.i, align 1
  br label %tcache_available.exit

if.end.i:                                         ; preds = %entry
  store i1 false, ptr %retval.i, align 1
  br label %tcache_available.exit

tcache_available.exit:                            ; preds = %if.end.i, %if.then.i
  %9 = load i1, ptr %retval.i, align 1
  br i1 %9, label %if.end, label %if.then

if.then:                                          ; preds = %tcache_available.exit
  store i32 14, ptr %ret, align 4
  br label %label_return

if.end:                                           ; preds = %tcache_available.exit
  br label %do.body

do.body:                                          ; preds = %if.end
  %10 = load ptr, ptr %oldp.addr, align 8
  %cmp = icmp ne ptr %10, null
  br i1 %cmp, label %if.then6, label %lor.lhs.false

lor.lhs.false:                                    ; preds = %do.body
  %11 = load ptr, ptr %oldlenp.addr, align 8
  %cmp1 = icmp ne ptr %11, null
  br i1 %cmp1, label %if.then6, label %lor.lhs.false2

lor.lhs.false2:                                   ; preds = %lor.lhs.false
  %12 = load ptr, ptr %newp.addr, align 8
  %cmp3 = icmp ne ptr %12, null
  br i1 %cmp3, label %if.then6, label %lor.lhs.false4

lor.lhs.false4:                                   ; preds = %lor.lhs.false2
  %13 = load i64, ptr %newlen.addr, align 8
  %cmp5 = icmp ne i64 %13, 0
  br i1 %cmp5, label %if.then6, label %if.end7

if.then6:                                         ; preds = %lor.lhs.false4, %lor.lhs.false2, %lor.lhs.false, %do.body
  store i32 1, ptr %ret, align 4
  br label %label_return

if.end7:                                          ; preds = %lor.lhs.false4
  br label %do.end

do.end:                                           ; preds = %if.end7
  %14 = load ptr, ptr %tsd.addr, align 8
  call void @tcache_flush(ptr noundef %14)
  store i32 0, ptr %ret, align 4
  br label %label_return

label_return:                                     ; preds = %do.end, %if.then6, %if.then
  %15 = load i32, ptr %ret, align 4
  ret i32 %15
}