; Function Attrs: nounwind uwtable
define internal noundef i32 @thread_tcache_flush_ctl(ptr noundef %tsd, ptr nocapture readnone %mib, i64 %miblen, ptr noundef readnone %oldp, ptr noundef readnone %oldlenp, ptr noundef readnone %newp, i64 noundef %newlen) #0 {
entry:
  %0 = load i8, ptr %tsd, align 1
  %1 = and i8 %0, 1
  %tobool.i.not.not = icmp eq i8 %1, 0
  br i1 %tobool.i.not.not, label %label_return, label %do.body

do.body:                                          ; preds = %entry
  %cmp = icmp ne ptr %oldp, null
  %cmp1 = icmp ne ptr %oldlenp, null
  %or.cond = or i1 %cmp, %cmp1
  %cmp3 = icmp ne ptr %newp, null
  %or.cond1 = or i1 %or.cond, %cmp3
  %cmp5 = icmp ne i64 %newlen, 0
  %or.cond2 = or i1 %or.cond1, %cmp5
  br i1 %or.cond2, label %label_return, label %do.end

do.end:                                           ; preds = %do.body
  tail call void @tcache_flush(ptr noundef nonnull %tsd) #14
  br label %label_return

label_return:                                     ; preds = %do.body, %entry, %do.end
  %ret.0 = phi i32 [ 0, %do.end ], [ 14, %entry ], [ 1, %do.body ]
  ret i32 %ret.0
}